; Function Attrs: mustprogress nofree norecurse nosync nounwind willreturn memory(argmem: readwrite) uwtable
define hidden void @_ZN11OpenImageIO6v3_1_07bmp_pvt13BmpFileHeader11swap_endianEv(ptr noundef nonnull align 4 captures(none) dereferenceable(16) %0) local_unnamed_addr #5 align 2 {
.lr.ph.i:
  %1 = load i16, ptr %0, align 4, !tbaa !11
  %2 = tail call noundef i16 @llvm.bswap.i16(i16 %1)
  store i16 %2, ptr %0, align 4, !tbaa !11
  %3 = getelementptr inbounds nuw i8, ptr %0, i64 4
  %4 = load i32, ptr %3, align 4, !tbaa !12
  %5 = tail call noundef i32 @llvm.bswap.i32(i32 %4)
  store i32 %5, ptr %3, align 4, !tbaa !12
  %6 = getelementptr inbounds nuw i8, ptr %0, i64 12
  %7 = load i32, ptr %6, align 4, !tbaa !12
  %8 = tail call noundef i32 @llvm.bswap.i32(i32 %7)
  store i32 %8, ptr %6, align 4, !tbaa !12
  ret void
}